target datalayout = "e-m:e-p270:32:32-p271:32:32-p272:64:64-i64:64-i128:128-f80:128-n8:16:32:64-S128"
target triple = "x86_64-pc-linux-gnu"

; Function Attrs: mustprogress nounwind uwtable
define internal void @_ZL18tMPI_UNSIGNED_bandPvPKvS1_i(ptr noundef %0, ptr noundef %1, ptr noundef %2, i32 noundef %3) #0 {
  %5 = alloca ptr, align 8
  %6 = alloca ptr, align 8
  %7 = alloca ptr, align 8
  %8 = alloca i32, align 4
  %9 = alloca ptr, align 8
  %10 = alloca ptr, align 8
  %11 = alloca ptr, align 8
  %12 = alloca i32, align 4
  store ptr %0, ptr %5, align 8, !tbaa !3
  store ptr %1, ptr %6, align 8, !tbaa !3
  store ptr %2, ptr %7, align 8, !tbaa !3
  store i32 %3, ptr %8, align 4, !tbaa !7
  call void @llvm.lifetime.start.p0(i64 8, ptr %9) #6
  %13 = load ptr, ptr %6, align 8, !tbaa !3
  store ptr %13, ptr %9, align 8, !tbaa !46
  call void @llvm.lifetime.start.p0(i64 8, ptr %10) #6
  %14 = load ptr, ptr %7, align 8, !tbaa !3
  store ptr %14, ptr %10, align 8, !tbaa !46
  call void @llvm.lifetime.start.p0(i64 8, ptr %11) #6
  %15 = load ptr, ptr %5, align 8, !tbaa !3
  store ptr %15, ptr %11, align 8, !tbaa !46
  call void @llvm.lifetime.start.p0(i64 4, ptr %12) #6
  store i32 0, ptr %12, align 4, !tbaa !7
  br label %16

16:                                               ; preds = %36, %4
  %17 = load i32, ptr %12, align 4, !tbaa !7
  %18 = load i32, ptr %8, align 4, !tbaa !7
  %19 = icmp slt i32 %17, %18
  br i1 %19, label %20, label %39

20:                                               ; preds = %16
  %21 = load ptr, ptr %9, align 8, !tbaa !46
  %22 = load i32, ptr %12, align 4, !tbaa !7
  %23 = sext i32 %22 to i64
  %24 = getelementptr inbounds i32, ptr %21, i64 %23
  %25 = load i32, ptr %24, align 4, !tbaa !7
  %26 = load ptr, ptr %10, align 8, !tbaa !46
  %27 = load i32, ptr %12, align 4, !tbaa !7
  %28 = sext i32 %27 to i64
  %29 = getelementptr inbounds i32, ptr %26, i64 %28
  %30 = load i32, ptr %29, align 4, !tbaa !7
  %31 = and i32 %25, %30
  %32 = load ptr, ptr %11, align 8, !tbaa !46
  %33 = load i32, ptr %12, align 4, !tbaa !7
  %34 = sext i32 %33 to i64
  %35 = getelementptr inbounds i32, ptr %32, i64 %34
  store i32 %31, ptr %35, align 4, !tbaa !7
  br label %36

36:                                               ; preds = %20
  %37 = load i32, ptr %12, align 4, !tbaa !7
  %38 = add nsw i32 %37, 1
  store i32 %38, ptr %12, align 4, !tbaa !7
  br label %16, !llvm.loop !107

39:                                               ; preds = %16
  call void @llvm.lifetime.end.p0(i64 4, ptr %12) #6
  call void @llvm.lifetime.end.p0(i64 8, ptr %11) #6
  call void @llvm.lifetime.end.p0(i64 8, ptr %10) #6
  call void @llvm.lifetime.end.p0(i64 8, ptr %9) #6
  ret void
}